; Function Attrs: mustprogress nounwind uwtable
define hidden void @_ZN12opencv_caffe16EltwiseParameterD2Ev(ptr noundef nonnull align 8 dereferenceable(48) %0) unnamed_addr #6 align 2 personality ptr @__gxx_personality_v0 {
  %2 = getelementptr inbounds nuw i8, ptr %0, i64 8
  %3 = load i64, ptr %2, align 8, !tbaa !8
  %4 = and i64 %3, 1
  %.not.i = icmp eq i64 %4, 0
  br i1 %.not.i, label %_ZN6google8protobuf8internal16InternalMetadata6DeleteINS0_15UnknownFieldSetEEEvv.exit, label %_ZNK6google8protobuf11MessageLite21GetArenaForAllocationEv.exit.thread, !prof !20

_ZNK6google8protobuf11MessageLite21GetArenaForAllocationEv.exit.thread: ; preds = %1
  %5 = and i64 %3, -4
  %6 = inttoptr i64 %5 to ptr
  %7 = load ptr, ptr %6, align 8, !tbaa !21
  %.not3 = icmp eq ptr %7, null
  br i1 %.not3, label %8, label %_ZN6google8protobuf8internal16InternalMetadata6DeleteINS0_15UnknownFieldSetEEEvv.exit

8:                                                ; preds = %_ZNK6google8protobuf11MessageLite21GetArenaForAllocationEv.exit.thread
  invoke void @_ZN6google8protobuf8internal16InternalMetadata21DeleteOutOfLineHelperINS0_15UnknownFieldSetEEEvv(ptr noundef nonnull align 8 dereferenceable(8) %2)
          to label %_ZN6google8protobuf8internal16InternalMetadata6DeleteINS0_15UnknownFieldSetEEEvv.exit unwind label %20

_ZN6google8protobuf8internal16InternalMetadata6DeleteINS0_15UnknownFieldSetEEEvv.exit: ; preds = %1, %8, %_ZNK6google8protobuf11MessageLite21GetArenaForAllocationEv.exit.thread
  %9 = getelementptr inbounds nuw i8, ptr %0, i64 24
  tail call void @_ZN6google8protobuf13RepeatedFieldIfED1Ev(ptr noundef nonnull align 8 dereferenceable(16) %9) #25
  store ptr getelementptr inbounds nuw inrange(-16, 104) (i8, ptr @_ZTVN6google8protobuf11MessageLiteE, i64 16), ptr %0, align 8, !tbaa !11
  %10 = load i64, ptr %2, align 8, !tbaa !8
  %11 = and i64 %10, 2
  %.not.i.i = icmp eq i64 %11, 0
  br i1 %.not.i.i, label %_ZN6google8protobuf11MessageLiteD2Ev.exit, label %12

12:                                               ; preds = %_ZN6google8protobuf8internal16InternalMetadata6DeleteINS0_15UnknownFieldSetEEEvv.exit
  %13 = and i64 %10, 1
  %.not1.i.i = icmp eq i64 %13, 0
  %14 = and i64 %10, -4
  %15 = inttoptr i64 %14 to ptr
  br i1 %.not1.i.i, label %_ZNK6google8protobuf8internal16InternalMetadata5arenaEv.exit.i.i, label %16, !prof !20

16:                                               ; preds = %12
  %17 = load ptr, ptr %15, align 8, !tbaa !21
  br label %_ZNK6google8protobuf8internal16InternalMetadata5arenaEv.exit.i.i

_ZNK6google8protobuf8internal16InternalMetadata5arenaEv.exit.i.i: ; preds = %16, %12
  %.0.i.i.i = phi ptr [ %17, %16 ], [ %15, %12 ]
  %18 = icmp eq ptr %.0.i.i.i, null
  br i1 %18, label %_ZN6google8protobuf11MessageLiteD2Ev.exit, label %19

19:                                               ; preds = %_ZNK6google8protobuf8internal16InternalMetadata5arenaEv.exit.i.i
  tail call void @_ZN6google8protobuf8internal15ThreadSafeArenaD1Ev(ptr noundef nonnull align 8 dereferenceable(32) %.0.i.i.i) #25
  tail call void @_ZdlPv(ptr noundef nonnull %.0.i.i.i) #26
  br label %_ZN6google8protobuf11MessageLiteD2Ev.exit

_ZN6google8protobuf11MessageLiteD2Ev.exit:        ; preds = %_ZN6google8protobuf8internal16InternalMetadata6DeleteINS0_15UnknownFieldSetEEEvv.exit, %_ZNK6google8protobuf8internal16InternalMetadata5arenaEv.exit.i.i, %19
  ret void

20:                                               ; preds = %8
  %21 = landingpad { ptr, i32 }
          catch ptr null
  %22 = extractvalue { ptr, i32 } %21, 0
  tail call void @__clang_call_terminate(ptr %22) #27
  unreachable
}